; ModuleID = '24/45.c'
source_filename = "24/45.c"
target datalayout = "e-m:e-p270:32:32-p271:32:32-p272:64:64-i64:64-f80:128-n8:16:32:64-S128"
target triple = "x86_64-pc-linux-gnu"

@.str = private unnamed_addr constant [3 x i8] c"%s\00", align 1
@.str.1 = private unnamed_addr constant [7 x i8] c"%s\0A%s\0A\00", align 1

; Function Attrs: noinline nounwind uwtable
define dso_local i32 @main() #0 {
  %1 = alloca i32, align 4
  %2 = alloca [50 x [30 x i8]], align 16
  %3 = alloca [50 x i32], align 16
  %4 = alloca i32, align 4
  %5 = alloca i32, align 4
  %6 = alloca i32, align 4
  %7 = alloca i32, align 4
  %8 = alloca i32, align 4
  %9 = alloca i32, align 4
  %10 = alloca i32, align 4
  %11 = alloca i32, align 4
  store i32 0, i32* %1, align 4
  store i32 0, i32* %4, align 4
  br label %12

12:                                               ; preds = %30, %0
  %13 = load i32, i32* %4, align 4
  %14 = icmp sle i32 %13, 49
  br i1 %14, label %15, label %33

15:                                               ; preds = %12
  store i32 0, i32* %5, align 4
  br label %16

16:                                               ; preds = %26, %15
  %17 = load i32, i32* %5, align 4
  %18 = icmp sle i32 %17, 11
  br i1 %18, label %19, label %29

19:                                               ; preds = %16
  %20 = load i32, i32* %4, align 4
  %21 = sext i32 %20 to i64
  %22 = getelementptr inbounds [50 x [30 x i8]], [50 x [30 x i8]]* %2, i64 0, i64 %21
  %23 = load i32, i32* %5, align 4
  %24 = sext i32 %23 to i64
  %25 = getelementptr inbounds [30 x i8], [30 x i8]* %22, i64 0, i64 %24
  store i8 0, i8* %25, align 1
  br label %26

26:                                               ; preds = %19
  %27 = load i32, i32* %5, align 4
  %28 = add nsw i32 %27, 1
  store i32 %28, i32* %5, align 4
  br label %16

29:                                               ; preds = %16
  br label %30

30:                                               ; preds = %29
  %31 = load i32, i32* %4, align 4
  %32 = add nsw i32 %31, 1
  store i32 %32, i32* %4, align 4
  br label %12

33:                                               ; preds = %12
  store i32 0, i32* %4, align 4
  br label %34

34:                                               ; preds = %48, %33
  %35 = load i32, i32* %4, align 4
  %36 = icmp sle i32 %35, 49
  br i1 %36, label %37, label %51

37:                                               ; preds = %34
  %38 = load i32, i32* %4, align 4
  %39 = sext i32 %38 to i64
  %40 = getelementptr inbounds [50 x [30 x i8]], [50 x [30 x i8]]* %2, i64 0, i64 %39
  %41 = getelementptr inbounds [30 x i8], [30 x i8]* %40, i64 0, i64 0
  %42 = call i32 (i8*, ...) @__isoc99_scanf(i8* getelementptr inbounds ([3 x i8], [3 x i8]* @.str, i64 0, i64 0), i8* %41)
  %43 = call i32 @getchar()
  %44 = icmp eq i32 %43, 10
  br i1 %44, label %45, label %47

45:                                               ; preds = %37
  %46 = load i32, i32* %4, align 4
  store i32 %46, i32* %6, align 4
  br label %51

47:                                               ; preds = %37
  br label %48

48:                                               ; preds = %47
  %49 = load i32, i32* %4, align 4
  %50 = add nsw i32 %49, 1
  store i32 %50, i32* %4, align 4
  br label %34

51:                                               ; preds = %45, %34
  store i32 0, i32* %4, align 4
  br label %52

52:                                               ; preds = %66, %51
  %53 = load i32, i32* %4, align 4
  %54 = load i32, i32* %6, align 4
  %55 = icmp sle i32 %53, %54
  br i1 %55, label %56, label %69

56:                                               ; preds = %52
  %57 = load i32, i32* %4, align 4
  %58 = sext i32 %57 to i64
  %59 = getelementptr inbounds [50 x [30 x i8]], [50 x [30 x i8]]* %2, i64 0, i64 %58
  %60 = getelementptr inbounds [30 x i8], [30 x i8]* %59, i64 0, i64 0
  %61 = call i64 @strlen(i8* %60) #3
  %62 = trunc i64 %61 to i32
  %63 = load i32, i32* %4, align 4
  %64 = sext i32 %63 to i64
  %65 = getelementptr inbounds [50 x i32], [50 x i32]* %3, i64 0, i64 %64
  store i32 %62, i32* %65, align 4
  br label %66

66:                                               ; preds = %56
  %67 = load i32, i32* %4, align 4
  %68 = add nsw i32 %67, 1
  store i32 %68, i32* %4, align 4
  br label %52

69:                                               ; preds = %52
  store i32 0, i32* %10, align 4
  store i32 0, i32* %11, align 4
  %70 = getelementptr inbounds [50 x i32], [50 x i32]* %3, i64 0, i64 0
  %71 = load i32, i32* %70, align 16
  store i32 %71, i32* %8, align 4
  %72 = getelementptr inbounds [50 x i32], [50 x i32]* %3, i64 0, i64 0
  %73 = load i32, i32* %72, align 16
  store i32 %73, i32* %9, align 4
  store i32 0, i32* %4, align 4
  br label %74

74:                                               ; preds = %105, %69
  %75 = load i32, i32* %4, align 4
  %76 = load i32, i32* %6, align 4
  %77 = icmp sle i32 %75, %76
  br i1 %77, label %78, label %108

78:                                               ; preds = %74
  %79 = load i32, i32* %4, align 4
  %80 = sext i32 %79 to i64
  %81 = getelementptr inbounds [50 x i32], [50 x i32]* %3, i64 0, i64 %80
  %82 = load i32, i32* %81, align 4
  %83 = load i32, i32* %8, align 4
  %84 = icmp sgt i32 %82, %83
  br i1 %84, label %85, label %91

85:                                               ; preds = %78
  %86 = load i32, i32* %4, align 4
  store i32 %86, i32* %10, align 4
  %87 = load i32, i32* %4, align 4
  %88 = sext i32 %87 to i64
  %89 = getelementptr inbounds [50 x i32], [50 x i32]* %3, i64 0, i64 %88
  %90 = load i32, i32* %89, align 4
  store i32 %90, i32* %8, align 4
  br label %91

91:                                               ; preds = %85, %78
  %92 = load i32, i32* %4, align 4
  %93 = sext i32 %92 to i64
  %94 = getelementptr inbounds [50 x i32], [50 x i32]* %3, i64 0, i64 %93
  %95 = load i32, i32* %94, align 4
  %96 = load i32, i32* %9, align 4
  %97 = icmp slt i32 %95, %96
  br i1 %97, label %98, label %104

98:                                               ; preds = %91
  %99 = load i32, i32* %4, align 4
  store i32 %99, i32* %11, align 4
  %100 = load i32, i32* %4, align 4
  %101 = sext i32 %100 to i64
  %102 = getelementptr inbounds [50 x i32], [50 x i32]* %3, i64 0, i64 %101
  %103 = load i32, i32* %102, align 4
  store i32 %103, i32* %9, align 4
  br label %104

104:                                              ; preds = %98, %91
  br label %105

105:                                              ; preds = %104
  %106 = load i32, i32* %4, align 4
  %107 = add nsw i32 %106, 1
  store i32 %107, i32* %4, align 4
  br label %74

108:                                              ; preds = %74
  %109 = load i32, i32* %10, align 4
  %110 = sext i32 %109 to i64
  %111 = getelementptr inbounds [50 x [30 x i8]], [50 x [30 x i8]]* %2, i64 0, i64 %110
  %112 = getelementptr inbounds [30 x i8], [30 x i8]* %111, i64 0, i64 0
  %113 = load i32, i32* %11, align 4
  %114 = sext i32 %113 to i64
  %115 = getelementptr inbounds [50 x [30 x i8]], [50 x [30 x i8]]* %2, i64 0, i64 %114
  %116 = getelementptr inbounds [30 x i8], [30 x i8]* %115, i64 0, i64 0
  %117 = call i32 (i8*, ...) @printf(i8* getelementptr inbounds ([7 x i8], [7 x i8]* @.str.1, i64 0, i64 0), i8* %112, i8* %116)
  ret i32 0
}

declare dso_local i32 @__isoc99_scanf(i8*, ...) #1

declare dso_local i32 @getchar() #1

; Function Attrs: nounwind readonly
declare dso_local i64 @strlen(i8*) #2

declare dso_local i32 @printf(i8*, ...) #1


!llvm.module.flags = !{!0}
!llvm.ident = !{!1}

!0 = !{i32 1, !"wchar_size", i32 4}
!1 = !{!"clang version 10.0.0-4ubuntu1 "}
